target datalayout = "e-m:e-p270:32:32-p271:32:32-p272:64:64-i64:64-i128:128-f80:128-n8:16:32:64-S128"
target triple = "x86_64-pc-linux-gnu"

%struct.Abc_TtStore_t = type { i32, i32, i32, ptr }

; Function Attrs: nounwind uwtable
define ptr @makeArray(ptr noundef %0) #0 {
  %2 = alloca ptr, align 8
  %3 = alloca i32, align 4
  %4 = alloca ptr, align 8
  store ptr %0, ptr %2, align 8, !tbaa !14
  call void @llvm.lifetime.start.p0(i64 4, ptr %3) #7
  call void @llvm.lifetime.start.p0(i64 8, ptr %4) #7
  %5 = load ptr, ptr %2, align 8, !tbaa !14
  %6 = getelementptr inbounds nuw %struct.Abc_TtStore_t, ptr %5, i32 0, i32 2
  %7 = load i32, ptr %6, align 8, !tbaa !15
  %8 = sext i32 %7 to i64
  %9 = mul i64 8, %8
  %10 = call noalias ptr @malloc(i64 noundef %9) #9
  store ptr %10, ptr %4, align 8, !tbaa !19
  store i32 0, ptr %3, align 4, !tbaa !8
  br label %11

11:                                               ; preds = %45, %1
  %12 = load i32, ptr %3, align 4, !tbaa !8
  %13 = load ptr, ptr %2, align 8, !tbaa !14
  %14 = getelementptr inbounds nuw %struct.Abc_TtStore_t, ptr %13, i32 0, i32 2
  %15 = load i32, ptr %14, align 8, !tbaa !15
  %16 = icmp slt i32 %12, %15
  br i1 %16, label %17, label %48

17:                                               ; preds = %11
  %18 = load ptr, ptr %2, align 8, !tbaa !14
  %19 = getelementptr inbounds nuw %struct.Abc_TtStore_t, ptr %18, i32 0, i32 1
  %20 = load i32, ptr %19, align 4, !tbaa !20
  %21 = sext i32 %20 to i64
  %22 = mul i64 8, %21
  %23 = call noalias ptr @malloc(i64 noundef %22) #9
  %24 = load ptr, ptr %4, align 8, !tbaa !19
  %25 = load i32, ptr %3, align 4, !tbaa !8
  %26 = sext i32 %25 to i64
  %27 = getelementptr inbounds ptr, ptr %24, i64 %26
  store ptr %23, ptr %27, align 8, !tbaa !3
  %28 = load ptr, ptr %4, align 8, !tbaa !19
  %29 = load i32, ptr %3, align 4, !tbaa !8
  %30 = sext i32 %29 to i64
  %31 = getelementptr inbounds ptr, ptr %28, i64 %30
  %32 = load ptr, ptr %31, align 8, !tbaa !3
  %33 = load ptr, ptr %2, align 8, !tbaa !14
  %34 = getelementptr inbounds nuw %struct.Abc_TtStore_t, ptr %33, i32 0, i32 3
  %35 = load ptr, ptr %34, align 8, !tbaa !26
  %36 = load i32, ptr %3, align 4, !tbaa !8
  %37 = sext i32 %36 to i64
  %38 = getelementptr inbounds ptr, ptr %35, i64 %37
  %39 = load ptr, ptr %38, align 8, !tbaa !3
  %40 = load ptr, ptr %2, align 8, !tbaa !14
  %41 = getelementptr inbounds nuw %struct.Abc_TtStore_t, ptr %40, i32 0, i32 1
  %42 = load i32, ptr %41, align 4, !tbaa !20
  %43 = sext i32 %42 to i64
  %44 = mul i64 8, %43
  call void @llvm.memcpy.p0.p0.i64(ptr align 8 %32, ptr align 8 %39, i64 %44, i1 false)
  br label %45

45:                                               ; preds = %17
  %46 = load i32, ptr %3, align 4, !tbaa !8
  %47 = add nsw i32 %46, 1
  store i32 %47, ptr %3, align 4, !tbaa !8
  br label %11, !llvm.loop !27

48:                                               ; preds = %11
  %49 = load ptr, ptr %4, align 8, !tbaa !19
  call void @llvm.lifetime.end.p0(i64 8, ptr %4) #7
  call void @llvm.lifetime.end.p0(i64 4, ptr %3) #7
  ret ptr %49
}