; Function Attrs: nofree nounwind uwtable
define noalias noundef ptr @makeArray(ptr noundef readonly captures(none) %0) local_unnamed_addr #4 {
  %2 = getelementptr inbounds nuw i8, ptr %0, i64 8
  %3 = load i32, ptr %2, align 8, !tbaa !9
  %4 = sext i32 %3 to i64
  %5 = shl nsw i64 %4, 3
  %6 = tail call noalias ptr @malloc(i64 noundef %5) #21
  %7 = icmp sgt i32 %3, 0
  br i1 %7, label %.lr.ph, label %._crit_edge

.lr.ph:                                           ; preds = %1
  %8 = getelementptr inbounds nuw i8, ptr %0, i64 4
  %9 = load i32, ptr %8, align 4, !tbaa !17
  %10 = sext i32 %9 to i64
  %11 = shl nsw i64 %10, 3
  %12 = getelementptr inbounds nuw i8, ptr %0, i64 16
  %13 = load ptr, ptr %12, align 8, !tbaa !23
  %wide.trip.count = zext nneg i32 %3 to i64
  br label %14

14:                                               ; preds = %.lr.ph, %14
  %indvars.iv = phi i64 [ 0, %.lr.ph ], [ %indvars.iv.next, %14 ]
  %15 = tail call noalias ptr @malloc(i64 noundef %11) #21
  %16 = getelementptr inbounds nuw ptr, ptr %6, i64 %indvars.iv
  store ptr %15, ptr %16, align 8, !tbaa !15
  %17 = getelementptr inbounds nuw ptr, ptr %13, i64 %indvars.iv
  %18 = load ptr, ptr %17, align 8, !tbaa !15
  tail call void @llvm.memcpy.p0.p0.i64(ptr align 8 %15, ptr align 8 %18, i64 %11, i1 false)
  %indvars.iv.next = add nuw nsw i64 %indvars.iv, 1
  %exitcond.not = icmp eq i64 %indvars.iv.next, %wide.trip.count
  br i1 %exitcond.not, label %._crit_edge, label %14, !llvm.loop !24

._crit_edge:                                      ; preds = %14, %1
  ret ptr %6
}